; Function Attrs: mustprogress uwtable
define void @_ZN7rocksdb39AppendInternalKeyWithDifferentTimestampEPNSt7__cxx1112basic_stringIcSt11char_traitsIcESaIcEEERKNS_17ParsedInternalKeyERKNS_5SliceE(ptr noundef %0, ptr noundef nonnull readonly align 8 captures(none) dereferenceable(25) %1, ptr noundef nonnull readonly align 8 captures(none) dereferenceable(16) %2) local_unnamed_addr #4 personality ptr @__gxx_personality_v0 {
  %4 = alloca i64, align 8
  %5 = getelementptr inbounds nuw i8, ptr %1, i64 8
  %6 = load i64, ptr %5, align 8, !tbaa !4
  %7 = getelementptr inbounds nuw i8, ptr %2, i64 8
  %8 = load i64, ptr %7, align 8, !tbaa !4
  %9 = sub i64 %6, %8
  %10 = getelementptr inbounds nuw i8, ptr %0, i64 8
  %11 = load i64, ptr %10, align 8, !tbaa !11
  %12 = sub i64 4611686018427387903, %11
  %13 = icmp ult i64 %12, %9
  br i1 %13, label %14, label %_ZNSt7__cxx1112basic_stringIcSt11char_traitsIcESaIcEE6appendEPKcm.exit

14:                                               ; preds = %3
  tail call void @_ZSt20__throw_length_errorPKc(ptr noundef nonnull @.str.11) #19
  unreachable

_ZNSt7__cxx1112basic_stringIcSt11char_traitsIcESaIcEE6appendEPKcm.exit: ; preds = %3
  %15 = load ptr, ptr %1, align 8, !tbaa !14
  %16 = tail call noundef nonnull align 8 dereferenceable(32) ptr @_ZNSt7__cxx1112basic_stringIcSt11char_traitsIcESaIcEE9_M_appendEPKcm(ptr noundef nonnull align 8 dereferenceable(32) %0, ptr noundef %15, i64 noundef %9)
  %17 = load i64, ptr %7, align 8, !tbaa !4
  %18 = load i64, ptr %10, align 8, !tbaa !11
  %19 = sub i64 4611686018427387903, %18
  %20 = icmp ult i64 %19, %17
  br i1 %20, label %21, label %_ZNSt7__cxx1112basic_stringIcSt11char_traitsIcESaIcEE6appendEPKcm.exit10

21:                                               ; preds = %_ZNSt7__cxx1112basic_stringIcSt11char_traitsIcESaIcEE6appendEPKcm.exit
  tail call void @_ZSt20__throw_length_errorPKc(ptr noundef nonnull @.str.11) #19
  unreachable

_ZNSt7__cxx1112basic_stringIcSt11char_traitsIcESaIcEE6appendEPKcm.exit10: ; preds = %_ZNSt7__cxx1112basic_stringIcSt11char_traitsIcESaIcEE6appendEPKcm.exit
  %22 = load ptr, ptr %2, align 8, !tbaa !14
  %23 = tail call noundef nonnull align 8 dereferenceable(32) ptr @_ZNSt7__cxx1112basic_stringIcSt11char_traitsIcESaIcEE9_M_appendEPKcm(ptr noundef nonnull align 8 dereferenceable(32) %0, ptr noundef %22, i64 noundef %17)
  %24 = getelementptr inbounds nuw i8, ptr %1, i64 16
  %25 = load i64, ptr %24, align 8, !tbaa !15
  %26 = getelementptr inbounds nuw i8, ptr %1, i64 24
  %27 = load i8, ptr %26, align 8, !tbaa !18
  %28 = shl i64 %25, 8
  %29 = zext i8 %27 to i64
  %30 = or disjoint i64 %28, %29
  call void @llvm.lifetime.start.p0(i64 8, ptr nonnull %4)
  store i64 %30, ptr %4, align 8, !tbaa !19
  %31 = load i64, ptr %10, align 8, !tbaa !11
  %32 = and i64 %31, -8
  %33 = icmp eq i64 %32, 4611686018427387896
  br i1 %33, label %34, label %_ZN7rocksdb10PutFixed64EPNSt7__cxx1112basic_stringIcSt11char_traitsIcESaIcEEEm.exit

34:                                               ; preds = %_ZNSt7__cxx1112basic_stringIcSt11char_traitsIcESaIcEE6appendEPKcm.exit10
  tail call void @_ZSt20__throw_length_errorPKc(ptr noundef nonnull @.str.11) #19
  unreachable

_ZN7rocksdb10PutFixed64EPNSt7__cxx1112basic_stringIcSt11char_traitsIcESaIcEEEm.exit: ; preds = %_ZNSt7__cxx1112basic_stringIcSt11char_traitsIcESaIcEE6appendEPKcm.exit10
  %35 = call noundef nonnull align 8 dereferenceable(32) ptr @_ZNSt7__cxx1112basic_stringIcSt11char_traitsIcESaIcEE9_M_appendEPKcm(ptr noundef nonnull align 8 dereferenceable(32) %0, ptr noundef nonnull %4, i64 noundef 8)
  call void @llvm.lifetime.end.p0(i64 8, ptr nonnull %4)
  ret void
}